Certificate:
    Data:
        Version: 3 (0x2)
        Serial Number: 14058351510702583955 (0xc3194c36f300f093)
    Signature Algorithm: sha1WithRSAEncryption
        Issuer: C=ES, ST=Barcelona, O=Streamsets, OU=Engineering, CN=Pulsar/emailAddress=xavi@streamsets.com
        Validity
            Not Before: Jul 31 13:00:11 2018 GMT
            Not After : Jul 30 13:00:11 2021 GMT
        Subject: C=ES, ST=Barcelona, O=Streamsets, OU=Engineering, CN=Pulsar/emailAddress=xavi@streamsets.com
        Subject Public Key Info:
            Public Key Algorithm: rsaEncryption
                Public-Key: (2048 bit)
                Modulus:
                    00:b1:0c:2c:20:2c:ad:f4:40:9d:3d:5e:b3:4d:69:
                    7c:bd:3e:db:8a:b6:f4:7b:e7:55:af:3f:6a:c1:87:
                    65:22:ae:2d:d8:19:26:48:53:b0:12:f0:c0:90:7a:
                    7a:53:15:e7:74:9d:54:ee:b5:98:ac:2b:b5:4b:72:
                    97:d4:65:8b:0e:1a:c8:f9:5a:14:01:0a:f1:a6:eb:
                    af:e5:36:f2:75:d1:fd:c6:f4:d8:3e:bf:91:12:9f:
                    9f:07:d9:c2:25:4a:d7:71:0d:12:14:38:c3:fb:b9:
                    1e:c9:f3:b4:15:c4:fd:89:a3:93:1a:63:c7:87:ea:
                    3e:c3:85:a8:f5:b7:dc:69:cb:98:03:75:b5:eb:1c:
                    68:da:32:d6:b5:15:e7:c1:de:71:a2:5a:74:92:97:
                    4d:bd:bd:b8:80:36:c9:eb:90:d6:a4:fc:60:5c:93:
                    9a:ee:ea:bf:19:c3:ef:ce:6a:e4:00:d7:7f:e6:5e:
                    3a:a8:fb:c6:6f:cc:e9:30:82:25:df:78:62:ca:5b:
                    f6:70:02:6a:dc:c7:81:96:b5:25:72:cb:8f:a9:50:
                    50:8e:16:8e:78:82:3e:bc:5f:49:56:d9:03:c6:cd:
                    0b:83:16:ca:6a:6e:e7:cd:21:25:76:e3:81:1d:47:
                    f2:c3:77:8b:7e:4b:b1:0d:72:29:f7:bf:26:01:34:
                    2b:0f
                Exponent: 65537 (0x10001)
        X509v3 extensions:
            X509v3 Subject Key Identifier:
                94:95:EF:2D:71:6F:AC:D9:EF:3F:2F:7C:F3:F8:5A:F4:F8:76:B9:B4
            X509v3 Authority Key Identifier:
                keyid:94:95:EF:2D:71:6F:AC:D9:EF:3F:2F:7C:F3:F8:5A:F4:F8:76:B9:B4

            X509v3 Basic Constraints:
                CA:TRUE
    Signature Algorithm: sha1WithRSAEncryption
         25:ba:11:eb:1d:91:cd:09:8a:f6:91:45:63:c0:e2:dc:87:03:
         76:6e:22:97:eb:34:4d:3f:64:fb:f9:ad:87:7a:ae:4b:59:5d:
         c8:a0:fb:5f:17:9b:11:46:bc:e6:1b:da:17:89:5e:96:30:ed:
         1e:23:91:88:3d:21:30:ce:fe:ec:f3:3a:f9:4e:60:29:b9:3b:
         ab:ce:6e:1e:9f:43:46:62:b3:10:06:f1:25:ea:b5:34:65:fa:
         45:13:1e:42:7e:ef:da:e7:93:ef:06:26:d2:98:85:5d:cd:54:
         bd:21:d7:54:44:70:f9:24:cc:99:e9:4a:6d:ec:2d:1b:c5:5b:
         89:70:89:75:e3:ad:00:77:37:32:56:ff:61:9f:20:96:1d:04:
         97:81:30:30:8e:a3:db:e3:aa:8e:7d:55:4f:1e:6d:ab:8d:38:
         83:d7:a8:2c:cc:93:0b:21:44:89:c5:a8:41:27:2a:e0:07:a0:
         32:1e:bd:e8:82:ca:66:4c:4a:12:04:fe:e6:cd:ed:b1:46:51:
         aa:9d:3d:4a:20:65:b1:fd:c9:f7:b1:82:83:6c:48:07:c3:a9:
         94:bc:28:64:ec:34:7b:b9:43:bf:e9:fa:a6:c2:8e:ba:2b:a0:
         79:03:08:c8:ee:d0:83:be:31:77:a0:5d:b4:92:f3:6f:bb:db:
         a9:8b:18:22
-----BEGIN CERTIFICATE-----
MIID1zCCAr+gAwIBAgIJAMMZTDbzAPCTMA0GCSqGSIb3DQEBBQUAMIGBMQswCQYD
VQQGEwJFUzESMBAGA1UECAwJQmFyY2Vsb25hMRMwEQYDVQQKDApTdHJlYW1zZXRz
MRQwEgYDVQQLDAtFbmdpbmVlcmluZzEPMA0GA1UEAwwGUHVsc2FyMSIwIAYJKoZI
hvcNAQkBFhN4YXZpQHN0cmVhbXNldHMuY29tMB4XDTE4MDczMTEzMDAxMVoXDTIx
MDczMDEzMDAxMVowgYExCzAJBgNVBAYTAkVTMRIwEAYDVQQIDAlCYXJjZWxvbmEx
EzARBgNVBAoMClN0cmVhbXNldHMxFDASBgNVBAsMC0VuZ2luZWVyaW5nMQ8wDQYD
VQQDDAZQdWxzYXIxIjAgBgkqhkiG9w0BCQEWE3hhdmlAc3RyZWFtc2V0cy5jb20w
ggEiMA0GCSqGSIb3DQEBAQUAA4IBDwAwggEKAoIBAQCxDCwgLK30QJ09XrNNaXy9
PtuKtvR751WvP2rBh2Uiri3YGSZIU7AS8MCQenpTFed0nVTutZisK7VLcpfUZYsO
Gsj5WhQBCvGm66/lNvJ10f3G9Ng+v5ESn58H2cIlStdxDRIUOMP7uR7J87QVxP2J
o5MaY8eH6j7Dhaj1t9xpy5gDdbXrHGjaMta1FefB3nGiWnSSl029vbiANsnrkNak
/GBck5ru6r8Zw+/OauQA13/mXjqo+8ZvzOkwgiXfeGLKW/ZwAmrcx4GWtSVyy4+p
UFCOFo54gj68X0lW2QPGzQuDFspqbufNISV244EdR/LDd4t+S7ENcin3vyYBNCsP
AgMBAAGjUDBOMB0GA1UdDgQWBBSUle8tcW+s2e8/L3zz+Fr0+Ha5tDAfBgNVHSME
GDAWgBSUle8tcW+s2e8/L3zz+Fr0+Ha5tDAMBgNVHRMEBTADAQH/MA0GCSqGSIb3
DQEBBQUAA4IBAQAluhHrHZHNCYr2kUVjwOLchwN2biKX6zRNP2T7+a2Heq5LWV3I
oPtfF5sRRrzmG9oXiV6WMO0eI5GIPSEwzv7s8zr5TmApuTurzm4en0NGYrMQBvEl
6rU0ZfpFEx5Cfu/a55PvBibSmIVdzVS9IddURHD5JMyZ6Upt7C0bxVuJcIl1460A
dzcyVv9hnyCWHQSXgTAwjqPb46qOfVVPHm2rjTiD16gszJMLIUSJxahBJyrgB6Ay
Hr3ogspmTEoSBP7mze2xRlGqnT1KIGWx/cn3sYKDbEgHw6mUvChk7DR7uUO/6fqm
wo66K6B5AwjI7tCDvjF3oF20kvNvu9upixgi
-----END CERTIFICATE-----
