Certificate:
    Data:
        Version: 3 (0x2)
        Serial Number: 14058351510702583956 (0xc3194c36f300f094)
    Signature Algorithm: sha1WithRSAEncryption
        Issuer: C=ES, ST=Barcelona, O=Streamsets, OU=Engineering, CN=Pulsar/emailAddress=xavi@streamsets.com
        Validity
            Not Before: Jul 31 13:01:25 2018 GMT
            Not After : Jul 31 13:01:25 2019 GMT
        Subject: C=ES, ST=Barcelona, O=Streamsets, OU=Engineering, CN=xavier-baques.local/emailAddress=xavi@streamsets.com
        Subject Public Key Info:
            Public Key Algorithm: rsaEncryption
                Public-Key: (2048 bit)
                Modulus:
                    00:e3:29:ba:ad:70:15:c5:f8:b2:14:13:d2:64:68:
                    7a:5f:71:09:73:91:bd:b8:e5:86:6f:0d:57:22:4a:
                    3d:c3:2e:c2:1b:4d:19:37:b1:d4:3a:d2:c6:a0:b0:
                    c8:34:5e:68:99:c1:dc:e7:c9:cb:17:e4:f8:b7:18:
                    26:12:50:5b:a3:ca:93:b2:6d:6a:84:0f:23:d1:a5:
                    21:6b:91:1c:c7:b9:12:c2:eb:87:94:e6:46:1a:6f:
                    4a:4e:7d:92:6b:4f:2a:af:68:a8:ea:8a:22:5d:11:
                    05:6a:4a:ac:12:14:e1:28:89:55:e8:22:ef:88:ec:
                    4f:62:c9:24:a4:b4:23:db:2d:a4:99:59:c9:74:0c:
                    0e:9d:fa:38:e2:2d:a2:fb:96:6a:44:f1:d9:dd:50:
                    9a:75:b6:d5:06:6f:ae:45:20:57:20:39:b4:b5:83:
                    7e:cd:10:91:d8:f0:cb:4c:fe:2e:4c:48:d1:a3:de:
                    57:10:34:51:3b:89:9e:e8:7f:f3:f7:b3:23:ae:9b:
                    11:b7:83:76:7a:63:8a:54:af:a3:f5:eb:71:d2:71:
                    c8:b0:71:8f:86:ac:fc:f9:f5:a4:6b:50:85:45:c7:
                    55:fe:58:1f:4f:29:6a:50:cb:03:21:5d:ed:86:fd:
                    85:97:b8:fd:43:48:84:44:80:9d:08:46:70:14:0d:
                    af:e1
                Exponent: 65537 (0x10001)
        X509v3 extensions:
            X509v3 Basic Constraints:
                CA:FALSE
            Netscape Comment:
                OpenSSL Generated Certificate
            X509v3 Subject Key Identifier:
                EB:15:1F:33:D3:64:72:83:70:BA:07:0A:0C:E5:21:73:2D:4B:7E:6F
            X509v3 Authority Key Identifier:
                keyid:94:95:EF:2D:71:6F:AC:D9:EF:3F:2F:7C:F3:F8:5A:F4:F8:76:B9:B4

    Signature Algorithm: sha1WithRSAEncryption
         29:80:94:c2:ea:73:82:62:b5:a8:5c:90:ea:6b:ba:11:77:67:
         9e:d3:38:54:df:24:07:ce:5e:42:70:ed:44:05:a0:52:cb:6b:
         41:fe:de:c8:e0:47:e5:6f:9d:a6:65:1c:ff:d6:fa:97:34:2e:
         fb:0f:02:30:b0:ac:f8:4c:02:58:63:41:72:d4:de:ce:82:6c:
         23:88:5f:c4:8e:ae:c4:0c:39:70:68:25:35:e8:8b:27:4e:92:
         7b:b2:2c:b5:ac:67:c8:9a:0b:64:17:5a:37:c3:ec:9d:a6:56:
         61:ec:ba:c8:62:c7:73:c1:78:bd:ba:dc:2a:54:d6:f6:5e:36:
         00:2c:8a:f3:3d:fe:03:a4:f1:f2:1b:2f:a2:8c:55:18:3f:1b:
         12:1e:84:7c:7b:94:42:10:aa:95:bf:9d:6e:68:55:16:6c:c1:
         b9:77:6c:f8:be:06:0c:db:31:53:09:3f:ad:5e:a8:e2:49:3e:
         d2:19:8f:89:8a:b9:05:b2:88:41:b4:07:7f:26:6e:81:4f:0a:
         7a:1f:dc:d3:a2:ad:c5:ae:b1:ed:1c:9d:7c:49:74:eb:48:be:
         03:aa:52:c7:4f:42:87:43:fe:d1:6c:17:e0:d1:4e:95:66:fb:
         84:fe:06:a5:bf:19:2d:af:a6:cd:49:f3:f7:d4:f9:2c:7c:6c:
         78:c0:47:a9
-----BEGIN CERTIFICATE-----
MIIEDzCCAvegAwIBAgIJAMMZTDbzAPCUMA0GCSqGSIb3DQEBBQUAMIGBMQswCQYD
VQQGEwJFUzESMBAGA1UECAwJQmFyY2Vsb25hMRMwEQYDVQQKDApTdHJlYW1zZXRz
MRQwEgYDVQQLDAtFbmdpbmVlcmluZzEPMA0GA1UEAwwGUHVsc2FyMSIwIAYJKoZI
hvcNAQkBFhN4YXZpQHN0cmVhbXNldHMuY29tMB4XDTE4MDczMTEzMDEyNVoXDTE5
MDczMTEzMDEyNVowgY4xCzAJBgNVBAYTAkVTMRIwEAYDVQQIDAlCYXJjZWxvbmEx
EzARBgNVBAoMClN0cmVhbXNldHMxFDASBgNVBAsMC0VuZ2luZWVyaW5nMRwwGgYD
VQQDDBN4YXZpZXItYmFxdWVzLmxvY2FsMSIwIAYJKoZIhvcNAQkBFhN4YXZpQHN0
cmVhbXNldHMuY29tMIIBIjANBgkqhkiG9w0BAQEFAAOCAQ8AMIIBCgKCAQEA4ym6
rXAVxfiyFBPSZGh6X3EJc5G9uOWGbw1XIko9wy7CG00ZN7HUOtLGoLDINF5omcHc
58nLF+T4txgmElBbo8qTsm1qhA8j0aUha5Ecx7kSwuuHlOZGGm9KTn2Sa08qr2io
6ooiXREFakqsEhThKIlV6CLviOxPYskkpLQj2y2kmVnJdAwOnfo44i2i+5ZqRPHZ
3VCadbbVBm+uRSBXIDm0tYN+zRCR2PDLTP4uTEjRo95XEDRRO4me6H/z97MjrpsR
t4N2emOKVK+j9etx0nHIsHGPhqz8+fWka1CFRcdV/lgfTylqUMsDIV3thv2Fl7j9
Q0iERICdCEZwFA2v4QIDAQABo3sweTAJBgNVHRMEAjAAMCwGCWCGSAGG+EIBDQQf
Fh1PcGVuU1NMIEdlbmVyYXRlZCBDZXJ0aWZpY2F0ZTAdBgNVHQ4EFgQU6xUfM9Nk
coNwugcKDOUhcy1Lfm8wHwYDVR0jBBgwFoAUlJXvLXFvrNnvPy988/ha9Ph2ubQw
DQYJKoZIhvcNAQEFBQADggEBACmAlMLqc4JitahckOpruhF3Z57TOFTfJAfOXkJw
7UQFoFLLa0H+3sjgR+VvnaZlHP/W+pc0LvsPAjCwrPhMAlhjQXLU3s6CbCOIX8SO
rsQMOXBoJTXoiydOknuyLLWsZ8iaC2QXWjfD7J2mVmHsushix3PBeL263CpU1vZe
NgAsivM9/gOk8fIbL6KMVRg/GxIehHx7lEIQqpW/nW5oVRZswbl3bPi+BgzbMVMJ
P61eqOJJPtIZj4mKuQWyiEG0B38mboFPCnof3NOircWuse0cnXxJdOtIvgOqUsdP
QodD/tFsF+DRTpVm+4T+BqW/GS2vps1J8/fU+Sx8bHjAR6k=
-----END CERTIFICATE-----
